target datalayout = "e-m:e-p270:32:32-p271:32:32-p272:64:64-i64:64-i128:128-f80:128-n8:16:32:64-S128"
target triple = "x86_64-pc-linux-gnu"

; Function Attrs: nounwind uwtable
define internal i32 @encode_frame_hdr(ptr noundef %0, i64 noundef %1) #0 {
  %3 = alloca ptr, align 8
  %4 = alloca i64, align 8
  store ptr %0, ptr %3, align 8, !tbaa !21
  store i64 %1, ptr %4, align 8, !tbaa !8
  %5 = load ptr, ptr %3, align 8, !tbaa !21
  %6 = load i64, ptr %4, align 8, !tbaa !8
  %7 = call i32 @WPACKET_quic_write_vlint(ptr noundef %5, i64 noundef %6)
  ret i32 %7
}

; Function Attrs: nounwind uwtable
define i32 @ossl_quic_wire_encode_frame_new_token(ptr noundef %0, ptr noundef %1, i64 noundef %2) #0 {
  %4 = alloca i32, align 4
  %5 = alloca ptr, align 8
  %6 = alloca ptr, align 8
  %7 = alloca i64, align 8
  store ptr %0, ptr %5, align 8, !tbaa !21
  store ptr %1, ptr %6, align 8, !tbaa !47
  store i64 %2, ptr %7, align 8, !tbaa !8
  %8 = load ptr, ptr %5, align 8, !tbaa !21
  %9 = call i32 @encode_frame_hdr(ptr noundef %8, i64 noundef 7)
  %10 = icmp ne i32 %9, 0
  br i1 %10, label %11, label %22

11:                                               ; preds = %3
  %12 = load ptr, ptr %5, align 8, !tbaa !21
  %13 = load i64, ptr %7, align 8, !tbaa !8
  %14 = call i32 @WPACKET_quic_write_vlint(ptr noundef %12, i64 noundef %13)
  %15 = icmp ne i32 %14, 0
  br i1 %15, label %16, label %22

16:                                               ; preds = %11
  %17 = load ptr, ptr %5, align 8, !tbaa !21
  %18 = load ptr, ptr %6, align 8, !tbaa !47
  %19 = load i64, ptr %7, align 8, !tbaa !8
  %20 = call i32 @WPACKET_memcpy(ptr noundef %17, ptr noundef %18, i64 noundef %19)
  %21 = icmp ne i32 %20, 0
  br i1 %21, label %23, label %22

22:                                               ; preds = %16, %11, %3
  store i32 0, ptr %4, align 4
  br label %24

23:                                               ; preds = %16
  store i32 1, ptr %4, align 4
  br label %24

24:                                               ; preds = %23, %22
  %25 = load i32, ptr %4, align 4
  ret i32 %25
}